target datalayout = "e-m:e-p270:32:32-p271:32:32-p272:64:64-i64:64-i128:128-f80:128-n8:16:32:64-S128"
target triple = "x86_64-unknown-linux-gnu"

%"class.arrow::compute::KeyColumnArray" = type { [3 x ptr], [3 x ptr], %"struct.arrow::compute::KeyColumnMetadata", i64, [2 x i32] }
%"struct.arrow::compute::KeyColumnMetadata" = type { i8, i8, i32 }
%"class.arrow::Result" = type { %"class.arrow::Status", %"class.arrow::internal::AlignedStorage" }
%"class.arrow::Status" = type { ptr }
%"class.arrow::internal::AlignedStorage" = type { %"union.std::aligned_storage<8, 4>::type" }
%"union.std::aligned_storage<8, 4>::type" = type { [8 x i8] }
%"class.std::__shared_count" = type { ptr }
%"class.std::shared_ptr" = type { %"class.std::__shared_ptr" }
%"class.std::__shared_ptr" = type { ptr, %"class.std::__shared_count" }
%"class.arrow::Result.10" = type { %"class.arrow::Status", %"class.arrow::internal::AlignedStorage.13" }
%"class.arrow::internal::AlignedStorage.13" = type { %"union.std::aligned_storage<72, 8>::type" }
%"union.std::aligned_storage<72, 8>::type" = type { [72 x i8] }
%"struct.arrow::ArrayData" = type { %"class.std::shared_ptr", i64, %"struct.std::atomic.15", i64, %"class.std::vector.17", %"class.std::vector.22", %"class.std::shared_ptr.27" }
%"struct.std::atomic.15" = type { %"struct.std::__atomic_base.16" }
%"struct.std::__atomic_base.16" = type { i64 }
%"class.std::vector.17" = type { %"struct.std::_Vector_base.18" }
%"struct.std::_Vector_base.18" = type { %"struct.std::_Vector_base<std::shared_ptr<arrow::Buffer>, std::allocator<std::shared_ptr<arrow::Buffer>>>::_Vector_impl" }
%"struct.std::_Vector_base<std::shared_ptr<arrow::Buffer>, std::allocator<std::shared_ptr<arrow::Buffer>>>::_Vector_impl" = type { %"struct.std::_Vector_base<std::shared_ptr<arrow::Buffer>, std::allocator<std::shared_ptr<arrow::Buffer>>>::_Vector_impl_data" }
%"struct.std::_Vector_base<std::shared_ptr<arrow::Buffer>, std::allocator<std::shared_ptr<arrow::Buffer>>>::_Vector_impl_data" = type { ptr, ptr, ptr }
%"class.std::vector.22" = type { %"struct.std::_Vector_base.23" }
%"struct.std::_Vector_base.23" = type { %"struct.std::_Vector_base<std::shared_ptr<arrow::ArrayData>, std::allocator<std::shared_ptr<arrow::ArrayData>>>::_Vector_impl" }
%"struct.std::_Vector_base<std::shared_ptr<arrow::ArrayData>, std::allocator<std::shared_ptr<arrow::ArrayData>>>::_Vector_impl" = type { %"struct.std::_Vector_base<std::shared_ptr<arrow::ArrayData>, std::allocator<std::shared_ptr<arrow::ArrayData>>>::_Vector_impl_data" }
%"struct.std::_Vector_base<std::shared_ptr<arrow::ArrayData>, std::allocator<std::shared_ptr<arrow::ArrayData>>>::_Vector_impl_data" = type { ptr, ptr, ptr }
%"class.std::shared_ptr.27" = type { %"class.std::__shared_ptr.28" }
%"class.std::__shared_ptr.28" = type { ptr, %"class.std::__shared_count" }

; Function Attrs: mustprogress nounwind uwtable
define linkonce_odr noundef ptr @_ZSt7launderIN5arrow7compute17KeyColumnMetadataEEPT_S4_(ptr noundef %__p) #0 comdat {
entry:
  %__p.addr = alloca ptr, align 8
  store ptr %__p, ptr %__p.addr, align 8
  %0 = load ptr, ptr %__p.addr, align 8
  ret ptr %0
}

; Function Attrs: mustprogress nounwind uwtable
define linkonce_odr void @_ZN5arrow8internal14AlignedStorageINS_7compute14KeyColumnArrayEE9constructIJS3_EEEvDpOT_(ptr noundef nonnull align 8 dereferenceable(72) %this, ptr noundef nonnull align 8 dereferenceable(72) %args) #0 comdat align 2 {
entry:
  %this.addr = alloca ptr, align 8
  %args.addr = alloca ptr, align 8
  store ptr %this, ptr %this.addr, align 8
  store ptr %args, ptr %args.addr, align 8
  %this1 = load ptr, ptr %this.addr, align 8
  %data_ = getelementptr inbounds %"class.arrow::internal::AlignedStorage.13", ptr %this1, i32 0, i32 0
  %0 = load ptr, ptr %args.addr, align 8
  call void @llvm.memcpy.p0.p0.i64(ptr align 8 %data_, ptr align 8 %0, i64 72, i1 false)
  ret void
}

; Function Attrs: mustprogress nounwind uwtable
define linkonce_odr noundef ptr @_ZN5arrow8internal14AlignedStorageINS_7compute17KeyColumnMetadataEE3getEv(ptr noundef nonnull align 4 dereferenceable(8) %this) #0 comdat align 2 {
entry:
  %this.addr = alloca ptr, align 8
  store ptr %this, ptr %this.addr, align 8
  %this1 = load ptr, ptr %this.addr, align 8
  %data_ = getelementptr inbounds %"class.arrow::internal::AlignedStorage", ptr %this1, i32 0, i32 0
  %call = call noundef ptr @_ZSt7launderIN5arrow7compute17KeyColumnMetadataEEPT_S4_(ptr noundef %data_) #11
  ret ptr %call
}

; Function Attrs: mustprogress nounwind uwtable
define linkonce_odr noundef ptr @_ZNKSt12__shared_ptrIN5arrow9ArrayDataELN9__gnu_cxx12_Lock_policyE2EE3getEv(ptr noundef nonnull align 8 dereferenceable(16) %this) #0 comdat align 2 {
entry:
  %this.addr = alloca ptr, align 8
  store ptr %this, ptr %this.addr, align 8
  %this1 = load ptr, ptr %this.addr, align 8
  %_M_ptr = getelementptr inbounds %"class.std::__shared_ptr.28", ptr %this1, i32 0, i32 0
  %0 = load ptr, ptr %_M_ptr, align 8
  ret ptr %0
}

; Function Attrs: mustprogress nounwind uwtable
define linkonce_odr void @_ZN5arrow6ResultINS_7compute14KeyColumnArrayEE14ConstructValueIS2_EEvOT_(ptr noundef nonnull align 8 dereferenceable(80) %this, ptr noundef nonnull align 8 dereferenceable(72) %u) #0 comdat align 2 {
entry:
  %this.addr = alloca ptr, align 8
  %u.addr = alloca ptr, align 8
  store ptr %this, ptr %this.addr, align 8
  store ptr %u, ptr %u.addr, align 8
  %this1 = load ptr, ptr %this.addr, align 8
  %storage_ = getelementptr inbounds %"class.arrow::Result.10", ptr %this1, i32 0, i32 1
  %0 = load ptr, ptr %u.addr, align 8
  call void @_ZN5arrow8internal14AlignedStorageINS_7compute14KeyColumnArrayEE9constructIJS3_EEEvDpOT_(ptr noundef nonnull align 8 dereferenceable(72) %storage_, ptr noundef nonnull align 8 dereferenceable(72) %0) #11
  ret void
}

; Function Attrs: mustprogress nounwind uwtable
define linkonce_odr void @_ZN5arrow6StatusC2Ev(ptr noundef nonnull align 8 dereferenceable(8) %this) unnamed_addr #0 comdat align 2 {
entry:
  %this.addr = alloca ptr, align 8
  store ptr %this, ptr %this.addr, align 8
  %this1 = load ptr, ptr %this.addr, align 8
  %state_ = getelementptr inbounds %"class.arrow::Status", ptr %this1, i32 0, i32 0
  store ptr null, ptr %state_, align 8
  ret void
}

; Function Attrs: mustprogress nounwind uwtable
define linkonce_odr i64 @_ZN5arrow6ResultINS_7compute17KeyColumnMetadataEE15MoveValueUnsafeEv(ptr noundef nonnull align 8 dereferenceable(16) %this) #0 comdat align 2 {
entry:
  %retval = alloca %"struct.arrow::compute::KeyColumnMetadata", align 4
  %this.addr = alloca ptr, align 8
  store ptr %this, ptr %this.addr, align 8
  %this1 = load ptr, ptr %this.addr, align 8
  %storage_ = getelementptr inbounds %"class.arrow::Result", ptr %this1, i32 0, i32 1
  %call = call noundef ptr @_ZN5arrow8internal14AlignedStorageINS_7compute17KeyColumnMetadataEE3getEv(ptr noundef nonnull align 4 dereferenceable(8) %storage_) #11
  call void @llvm.memcpy.p0.p0.i64(ptr align 4 %retval, ptr align 4 %call, i64 8, i1 false)
  %0 = load i64, ptr %retval, align 4
  ret i64 %0
}

; Function Attrs: mustprogress nounwind uwtable
define linkonce_odr noundef zeroext i1 @_ZNK5arrow6Status2okEv(ptr noundef nonnull align 8 dereferenceable(8) %this) #0 comdat align 2 {
entry:
  %this.addr = alloca ptr, align 8
  store ptr %this, ptr %this.addr, align 8
  %this1 = load ptr, ptr %this.addr, align 8
  %state_ = getelementptr inbounds %"class.arrow::Status", ptr %this1, i32 0, i32 0
  %0 = load ptr, ptr %state_, align 8
  %cmp = icmp eq ptr %0, null
  ret i1 %cmp
}

; Function Attrs: mustprogress nounwind uwtable
define linkonce_odr noundef ptr @_ZNKSt19__shared_ptr_accessIN5arrow9ArrayDataELN9__gnu_cxx12_Lock_policyE2ELb0ELb0EE6_M_getEv(ptr noundef nonnull align 1 dereferenceable(1) %this) #0 comdat align 2 {
entry:
  %this.addr = alloca ptr, align 8
  store ptr %this, ptr %this.addr, align 8
  %this1 = load ptr, ptr %this.addr, align 8
  %call = call noundef ptr @_ZNKSt12__shared_ptrIN5arrow9ArrayDataELN9__gnu_cxx12_Lock_policyE2EE3getEv(ptr noundef nonnull align 8 dereferenceable(16) %this1) #11
  ret ptr %call
}

; Function Attrs: mustprogress nounwind uwtable
define linkonce_odr void @_ZN5arrow6ResultINS_7compute14KeyColumnArrayEEC2EOS2_(ptr noundef nonnull align 8 dereferenceable(80) %this, ptr noundef nonnull align 8 dereferenceable(72) %value) unnamed_addr #0 comdat align 2 {
entry:
  %this.addr = alloca ptr, align 8
  %value.addr = alloca ptr, align 8
  store ptr %this, ptr %this.addr, align 8
  store ptr %value, ptr %value.addr, align 8
  %this1 = load ptr, ptr %this.addr, align 8
  %status_ = getelementptr inbounds %"class.arrow::Result.10", ptr %this1, i32 0, i32 0
  call void @_ZN5arrow6StatusC2Ev(ptr noundef nonnull align 8 dereferenceable(8) %status_) #11
  %0 = load ptr, ptr %value.addr, align 8
  call void @_ZN5arrow6ResultINS_7compute14KeyColumnArrayEE14ConstructValueIS2_EEvOT_(ptr noundef nonnull align 8 dereferenceable(80) %this1, ptr noundef nonnull align 8 dereferenceable(72) %0) #11
  ret void
}

; Function Attrs: mustprogress uwtable
define linkonce_odr i64 @_ZNO5arrow6ResultINS_7compute17KeyColumnMetadataEE11ValueUnsafeEv(ptr noundef nonnull align 8 dereferenceable(16) %this) #2 comdat align 2 {
entry:
  %retval = alloca %"struct.arrow::compute::KeyColumnMetadata", align 4
  %this.addr = alloca ptr, align 8
  store ptr %this, ptr %this.addr, align 8
  %this1 = load ptr, ptr %this.addr, align 8
  %call = call i64 @_ZN5arrow6ResultINS_7compute17KeyColumnMetadataEE15MoveValueUnsafeEv(ptr noundef nonnull align 8 dereferenceable(16) %this1)
  store i64 %call, ptr %retval, align 4
  %0 = load i64, ptr %retval, align 4
  ret i64 %0
}

; Function Attrs: mustprogress nounwind uwtable
define linkonce_odr noundef nonnull align 8 dereferenceable(8) ptr @_ZNK5arrow6ResultINS_7compute17KeyColumnMetadataEE6statusEv(ptr noundef nonnull align 8 dereferenceable(16) %this) #0 comdat align 2 {
entry:
  %this.addr = alloca ptr, align 8
  store ptr %this, ptr %this.addr, align 8
  %this1 = load ptr, ptr %this.addr, align 8
  %status_ = getelementptr inbounds %"class.arrow::Result", ptr %this1, i32 0, i32 0
  ret ptr %status_
}

; Function Attrs: mustprogress uwtable
define linkonce_odr noundef zeroext i1 @_ZNK5arrow6ResultINS_7compute17KeyColumnMetadataEE2okEv(ptr noundef nonnull align 8 dereferenceable(16) %this) #2 comdat align 2 {
entry:
  %this.addr = alloca ptr, align 8
  store ptr %this, ptr %this.addr, align 8
  %this1 = load ptr, ptr %this.addr, align 8
  %status_ = getelementptr inbounds %"class.arrow::Result", ptr %this1, i32 0, i32 0
  %call = call noundef zeroext i1 @_ZNK5arrow6Status2okEv(ptr noundef nonnull align 8 dereferenceable(8) %status_)
  ret i1 %call
}

; Function Attrs: mustprogress nounwind uwtable
define linkonce_odr noundef ptr @_ZNKSt19__shared_ptr_accessIN5arrow9ArrayDataELN9__gnu_cxx12_Lock_policyE2ELb0ELb0EEptEv(ptr noundef nonnull align 1 dereferenceable(1) %this) #0 comdat align 2 {
entry:
  %this.addr = alloca ptr, align 8
  store ptr %this, ptr %this.addr, align 8
  %this1 = load ptr, ptr %this.addr, align 8
  %call = call noundef ptr @_ZNKSt19__shared_ptr_accessIN5arrow9ArrayDataELN9__gnu_cxx12_Lock_policyE2ELb0ELb0EE6_M_getEv(ptr noundef nonnull align 1 dereferenceable(1) %this1) #11
  ret ptr %call
}

; Function Attrs: mustprogress uwtable
define void @_ZN5arrow7compute24ColumnArrayFromArrayDataERKSt10shared_ptrINS_9ArrayDataEEll(ptr noalias sret(%"class.arrow::Result.10") align 8 %agg.result, ptr noundef nonnull align 8 dereferenceable(16) %array_data, i64 noundef %start_row, i64 noundef %num_rows) #2 personality ptr @__gxx_personality_v0 {
entry:
  %result.ptr = alloca ptr, align 8
  %array_data.addr = alloca ptr, align 8
  %start_row.addr = alloca i64, align 8
  %num_rows.addr = alloca i64, align 8
  %_error_or_value18 = alloca ptr, align 8
  %ref.tmp = alloca %"class.arrow::Result", align 8
  %exn.slot = alloca ptr, align 8
  %ehselector.slot = alloca i32, align 4
  %cleanup.dest.slot = alloca i32, align 4
  %metadata = alloca %"struct.arrow::compute::KeyColumnMetadata", align 4
  %ref.tmp8 = alloca %"class.arrow::compute::KeyColumnArray", align 8
  store ptr %agg.result, ptr %result.ptr, align 8
  store ptr %array_data, ptr %array_data.addr, align 8
  store i64 %start_row, ptr %start_row.addr, align 8
  store i64 %num_rows, ptr %num_rows.addr, align 8
  %0 = load ptr, ptr %array_data.addr, align 8
  %call = call noundef ptr @_ZNKSt19__shared_ptr_accessIN5arrow9ArrayDataELN9__gnu_cxx12_Lock_policyE2ELb0ELb0EEptEv(ptr noundef nonnull align 1 dereferenceable(1) %0) #11
  %type = getelementptr inbounds %"struct.arrow::ArrayData", ptr %call, i32 0, i32 0
  call void @_ZN5arrow7compute26ColumnMetadataFromDataTypeERKSt10shared_ptrINS_8DataTypeEE(ptr sret(%"class.arrow::Result") align 8 %ref.tmp, ptr noundef nonnull align 8 dereferenceable(16) %type)
  store ptr %ref.tmp, ptr %_error_or_value18, align 8
  br label %do.body

do.body:                                          ; preds = %entry
  %1 = load ptr, ptr %_error_or_value18, align 8
  %call1 = invoke noundef zeroext i1 @_ZNK5arrow6ResultINS_7compute17KeyColumnMetadataEE2okEv(ptr noundef nonnull align 8 dereferenceable(16) %1)
          to label %invoke.cont unwind label %lpad

invoke.cont:                                      ; preds = %do.body
  %lnot = xor i1 %call1, true
  %lnot2 = xor i1 %lnot, true
  %lnot3 = xor i1 %lnot2, true
  br i1 %lnot3, label %if.then, label %if.end

if.then:                                          ; preds = %invoke.cont
  %2 = load ptr, ptr %_error_or_value18, align 8
  %call5 = invoke noundef nonnull align 8 dereferenceable(8) ptr @_ZNK5arrow6ResultINS_7compute17KeyColumnMetadataEE6statusEv(ptr noundef nonnull align 8 dereferenceable(16) %2)
          to label %invoke.cont4 unwind label %lpad

invoke.cont4:                                     ; preds = %if.then
  call void @_ZN5arrow6ResultINS_7compute14KeyColumnArrayEEC2ERKNS_6StatusE(ptr noundef nonnull align 8 dereferenceable(80) %agg.result, ptr noundef nonnull align 8 dereferenceable(8) %call5) #11
  store i32 1, ptr %cleanup.dest.slot, align 4
  br label %cleanup

lpad:                                             ; preds = %invoke.cont6, %do.end, %if.then, %do.body
  %3 = landingpad { ptr, i32 }
          cleanup
  %4 = extractvalue { ptr, i32 } %3, 0
  store ptr %4, ptr %exn.slot, align 8
  %5 = extractvalue { ptr, i32 } %3, 1
  store i32 %5, ptr %ehselector.slot, align 4
  call void @_ZN5arrow6ResultINS_7compute17KeyColumnMetadataEED2Ev(ptr noundef nonnull align 8 dereferenceable(16) %ref.tmp) #11
  br label %eh.resume

if.end:                                           ; preds = %invoke.cont
  br label %do.cond

do.cond:                                          ; preds = %if.end
  br label %do.end

do.end:                                           ; preds = %do.cond
  %6 = load ptr, ptr %_error_or_value18, align 8
  %call7 = invoke i64 @_ZNO5arrow6ResultINS_7compute17KeyColumnMetadataEE11ValueUnsafeEv(ptr noundef nonnull align 8 dereferenceable(16) %6)
          to label %invoke.cont6 unwind label %lpad

invoke.cont6:                                     ; preds = %do.end
  store i64 %call7, ptr %metadata, align 4
  %7 = load ptr, ptr %array_data.addr, align 8
  %8 = load i64, ptr %start_row.addr, align 8
  %9 = load i64, ptr %num_rows.addr, align 8
  invoke void @_ZN5arrow7compute35ColumnArrayFromArrayDataAndMetadataERKSt10shared_ptrINS_9ArrayDataEERKNS0_17KeyColumnMetadataEll(ptr sret(%"class.arrow::compute::KeyColumnArray") align 8 %ref.tmp8, ptr noundef nonnull align 8 dereferenceable(16) %7, ptr noundef nonnull align 4 dereferenceable(8) %metadata, i64 noundef %8, i64 noundef %9)
          to label %invoke.cont9 unwind label %lpad

invoke.cont9:                                     ; preds = %invoke.cont6
  call void @_ZN5arrow6ResultINS_7compute14KeyColumnArrayEEC2EOS2_(ptr noundef nonnull align 8 dereferenceable(80) %agg.result, ptr noundef nonnull align 8 dereferenceable(72) %ref.tmp8) #11
  store i32 1, ptr %cleanup.dest.slot, align 4
  br label %cleanup

cleanup:                                          ; preds = %invoke.cont9, %invoke.cont4
  call void @_ZN5arrow6ResultINS_7compute17KeyColumnMetadataEED2Ev(ptr noundef nonnull align 8 dereferenceable(16) %ref.tmp) #11
  ret void

eh.resume:                                        ; preds = %lpad
  %exn = load ptr, ptr %exn.slot, align 8
  %sel = load i32, ptr %ehselector.slot, align 4
  %lpad.val = insertvalue { ptr, i32 } poison, ptr %exn, 0
  %lpad.val10 = insertvalue { ptr, i32 } %lpad.val, i32 %sel, 1
  resume { ptr, i32 } %lpad.val10
}