; Function Attrs: mustprogress uwtable
define void @_ZN5arrow7compute24ColumnArrayFromArrayDataERKSt10shared_ptrINS_9ArrayDataEEll(ptr noalias sret(%"class.arrow::Result.10") align 8 %agg.result, ptr nocapture noundef nonnull readonly align 8 dereferenceable(16) %array_data, i64 noundef %start_row, i64 noundef %num_rows) local_unnamed_addr #2 personality ptr @__gxx_personality_v0 {
invoke.cont:
  %ref.tmp = alloca %"class.arrow::Result", align 8
  %metadata = alloca %"struct.arrow::compute::KeyColumnMetadata", align 8
  %ref.tmp8 = alloca %"class.arrow::compute::KeyColumnArray", align 8
  %0 = load ptr, ptr %array_data, align 8
  call void @_ZN5arrow7compute26ColumnMetadataFromDataTypeERKSt10shared_ptrINS_8DataTypeEE(ptr nonnull sret(%"class.arrow::Result") align 8 %ref.tmp, ptr noundef nonnull align 8 dereferenceable(16) %0)
  %1 = load ptr, ptr %ref.tmp, align 8
  %cmp.i.i = icmp eq ptr %1, null
  br i1 %cmp.i.i, label %invoke.cont6, label %if.then

if.then:                                          ; preds = %invoke.cont
  call void @_ZN5arrow6ResultINS_7compute14KeyColumnArrayEEC2ERKNS_6StatusE(ptr noundef nonnull align 8 dereferenceable(80) %agg.result, ptr noundef nonnull align 8 dereferenceable(8) %ref.tmp) #16
  br label %cleanup

lpad:                                             ; preds = %invoke.cont6
  %2 = landingpad { ptr, i32 }
          cleanup
  call void @_ZN5arrow6ResultINS_7compute17KeyColumnMetadataEED2Ev(ptr noundef nonnull align 8 dereferenceable(16) %ref.tmp) #16
  resume { ptr, i32 } %2

invoke.cont6:                                     ; preds = %invoke.cont
  %storage_.i.i = getelementptr inbounds i8, ptr %ref.tmp, i64 8
  %retval.sroa.0.0.copyload.i.i = load i64, ptr %storage_.i.i, align 8
  store i64 %retval.sroa.0.0.copyload.i.i, ptr %metadata, align 8
  invoke void @_ZN5arrow7compute35ColumnArrayFromArrayDataAndMetadataERKSt10shared_ptrINS_9ArrayDataEERKNS0_17KeyColumnMetadataEll(ptr nonnull sret(%"class.arrow::compute::KeyColumnArray") align 8 %ref.tmp8, ptr noundef nonnull align 8 dereferenceable(16) %array_data, ptr noundef nonnull align 4 dereferenceable(8) %metadata, i64 noundef %start_row, i64 noundef %num_rows)
          to label %invoke.cont9 unwind label %lpad

invoke.cont9:                                     ; preds = %invoke.cont6
  store ptr null, ptr %agg.result, align 8
  %storage_.i.i4 = getelementptr inbounds i8, ptr %agg.result, i64 8
  call void @llvm.memcpy.p0.p0.i64(ptr noundef nonnull align 8 dereferenceable(72) %storage_.i.i4, ptr noundef nonnull align 8 dereferenceable(72) %ref.tmp8, i64 72, i1 false)
  br label %cleanup

cleanup:                                          ; preds = %invoke.cont9, %if.then
  %3 = load ptr, ptr %ref.tmp, align 8
  %cmp.not.i.i = icmp eq ptr %3, null
  br i1 %cmp.not.i.i, label %_ZN5arrow6ResultINS_7compute17KeyColumnMetadataEED2Ev.exit, label %delete.notnull.i.i.i

delete.notnull.i.i.i:                             ; preds = %cleanup
  %_M_refcount.i.i.i.i.i.i = getelementptr inbounds i8, ptr %3, i64 48
  %4 = load ptr, ptr %_M_refcount.i.i.i.i.i.i, align 8
  %cmp.not.i.i.i.i.i.i.i = icmp eq ptr %4, null
  br i1 %cmp.not.i.i.i.i.i.i.i, label %_ZN5arrow6Status11DeleteStateEv.exit.i.i, label %if.then.i.i.i.i.i.i.i

if.then.i.i.i.i.i.i.i:                            ; preds = %delete.notnull.i.i.i
  %_M_use_count.i.i.i.i.i.i.i.i = getelementptr inbounds i8, ptr %4, i64 8
  %5 = load atomic i64, ptr %_M_use_count.i.i.i.i.i.i.i.i acquire, align 8
  %cmp.i.i.i.i.i.i.i.i = icmp eq i64 %5, 4294967297
  %6 = trunc i64 %5 to i32
  br i1 %cmp.i.i.i.i.i.i.i.i, label %if.then.i.i.i.i.i.i.i.i, label %if.end.i.i.i.i.i.i.i.i

if.then.i.i.i.i.i.i.i.i:                          ; preds = %if.then.i.i.i.i.i.i.i
  store i32 0, ptr %_M_use_count.i.i.i.i.i.i.i.i, align 8
  %_M_weak_count.i.i.i.i.i.i.i.i = getelementptr inbounds i8, ptr %4, i64 12
  store i32 0, ptr %_M_weak_count.i.i.i.i.i.i.i.i, align 4
  %vtable.i.i.i.i.i.i.i.i = load ptr, ptr %4, align 8
  %vfn.i.i.i.i.i.i.i.i = getelementptr inbounds i8, ptr %vtable.i.i.i.i.i.i.i.i, i64 16
  %7 = load ptr, ptr %vfn.i.i.i.i.i.i.i.i, align 8
  call void %7(ptr noundef nonnull align 8 dereferenceable(16) %4) #16
  br label %if.end8.sink.split.i.i.i.i.i.i.i.i

if.end.i.i.i.i.i.i.i.i:                           ; preds = %if.then.i.i.i.i.i.i.i
  %8 = load i8, ptr @__libc_single_threaded, align 1
  %tobool.i.not.i.i.i.i.i.i.i.i = icmp eq i8 %8, 0
  br i1 %tobool.i.not.i.i.i.i.i.i.i.i, label %if.else.i.i.i.i.i.i.i.i.i, label %if.then.i.i.i.i.i.i.i.i.i

if.then.i.i.i.i.i.i.i.i.i:                        ; preds = %if.end.i.i.i.i.i.i.i.i
  %add.i.i.i.i.i.i.i.i.i = add nsw i32 %6, -1
  store i32 %add.i.i.i.i.i.i.i.i.i, ptr %_M_use_count.i.i.i.i.i.i.i.i, align 4
  br label %_ZN9__gnu_cxx27__exchange_and_add_dispatchEPii.exit.i.i.i.i.i.i.i.i

if.else.i.i.i.i.i.i.i.i.i:                        ; preds = %if.end.i.i.i.i.i.i.i.i
  %9 = atomicrmw volatile add ptr %_M_use_count.i.i.i.i.i.i.i.i, i32 -1 acq_rel, align 4
  br label %_ZN9__gnu_cxx27__exchange_and_add_dispatchEPii.exit.i.i.i.i.i.i.i.i

_ZN9__gnu_cxx27__exchange_and_add_dispatchEPii.exit.i.i.i.i.i.i.i.i: ; preds = %if.else.i.i.i.i.i.i.i.i.i, %if.then.i.i.i.i.i.i.i.i.i
  %retval.i.0.i.i.i.i.i.i.i.i = phi i32 [ %6, %if.then.i.i.i.i.i.i.i.i.i ], [ %9, %if.else.i.i.i.i.i.i.i.i.i ]
  %cmp6.i.i.i.i.i.i.i.i = icmp eq i32 %retval.i.0.i.i.i.i.i.i.i.i, 1
  br i1 %cmp6.i.i.i.i.i.i.i.i, label %if.then7.i.i.i.i.i.i.i.i, label %_ZN5arrow6Status11DeleteStateEv.exit.i.i

if.then7.i.i.i.i.i.i.i.i:                         ; preds = %_ZN9__gnu_cxx27__exchange_and_add_dispatchEPii.exit.i.i.i.i.i.i.i.i
  %vtable.i.i.i.i.i.i.i.i.i.i = load ptr, ptr %4, align 8
  %vfn.i.i.i.i.i.i.i.i.i.i = getelementptr inbounds i8, ptr %vtable.i.i.i.i.i.i.i.i.i.i, i64 16
  %10 = load ptr, ptr %vfn.i.i.i.i.i.i.i.i.i.i, align 8
  call void %10(ptr noundef nonnull align 8 dereferenceable(16) %4) #16
  %_M_weak_count.i.i.i.i.i.i.i.i.i.i = getelementptr inbounds i8, ptr %4, i64 12
  %11 = load i8, ptr @__libc_single_threaded, align 1
  %tobool.i.not.i.i.i.i.i.i.i.i.i.i = icmp eq i8 %11, 0
  br i1 %tobool.i.not.i.i.i.i.i.i.i.i.i.i, label %if.else.i.i.i.i.i.i.i.i.i.i.i, label %if.then.i.i.i.i.i.i.i.i.i.i.i

if.then.i.i.i.i.i.i.i.i.i.i.i:                    ; preds = %if.then7.i.i.i.i.i.i.i.i
  %12 = load i32, ptr %_M_weak_count.i.i.i.i.i.i.i.i.i.i, align 4
  %add.i.i.i.i.i.i.i.i.i.i.i = add nsw i32 %12, -1
  store i32 %add.i.i.i.i.i.i.i.i.i.i.i, ptr %_M_weak_count.i.i.i.i.i.i.i.i.i.i, align 4
  br label %_ZN9__gnu_cxx27__exchange_and_add_dispatchEPii.exit.i.i.i.i.i.i.i.i.i.i

if.else.i.i.i.i.i.i.i.i.i.i.i:                    ; preds = %if.then7.i.i.i.i.i.i.i.i
  %13 = atomicrmw volatile add ptr %_M_weak_count.i.i.i.i.i.i.i.i.i.i, i32 -1 acq_rel, align 4
  br label %_ZN9__gnu_cxx27__exchange_and_add_dispatchEPii.exit.i.i.i.i.i.i.i.i.i.i

_ZN9__gnu_cxx27__exchange_and_add_dispatchEPii.exit.i.i.i.i.i.i.i.i.i.i: ; preds = %if.else.i.i.i.i.i.i.i.i.i.i.i, %if.then.i.i.i.i.i.i.i.i.i.i.i
  %retval.i.0.i.i.i.i.i.i.i.i.i.i = phi i32 [ %12, %if.then.i.i.i.i.i.i.i.i.i.i.i ], [ %13, %if.else.i.i.i.i.i.i.i.i.i.i.i ]
  %cmp.i.i.i.i.i.i.i.i.i.i = icmp eq i32 %retval.i.0.i.i.i.i.i.i.i.i.i.i, 1
  br i1 %cmp.i.i.i.i.i.i.i.i.i.i, label %if.end8.sink.split.i.i.i.i.i.i.i.i, label %_ZN5arrow6Status11DeleteStateEv.exit.i.i

if.end8.sink.split.i.i.i.i.i.i.i.i:               ; preds = %_ZN9__gnu_cxx27__exchange_and_add_dispatchEPii.exit.i.i.i.i.i.i.i.i.i.i, %if.then.i.i.i.i.i.i.i.i
  %vtable2.i.i.i.i.i.i.i.i.i.i = load ptr, ptr %4, align 8
  %vfn3.i.i.i.i.i.i.i.i.i.i = getelementptr inbounds i8, ptr %vtable2.i.i.i.i.i.i.i.i.i.i, i64 24
  %14 = load ptr, ptr %vfn3.i.i.i.i.i.i.i.i.i.i, align 8
  call void %14(ptr noundef nonnull align 8 dereferenceable(16) %4) #16
  br label %_ZN5arrow6Status11DeleteStateEv.exit.i.i

_ZN5arrow6Status11DeleteStateEv.exit.i.i:         ; preds = %if.end8.sink.split.i.i.i.i.i.i.i.i, %_ZN9__gnu_cxx27__exchange_and_add_dispatchEPii.exit.i.i.i.i.i.i.i.i.i.i, %_ZN9__gnu_cxx27__exchange_and_add_dispatchEPii.exit.i.i.i.i.i.i.i.i, %delete.notnull.i.i.i
  %msg.i.i.i.i = getelementptr inbounds i8, ptr %3, i64 8
  call void @_ZNSt7__cxx1112basic_stringIcSt11char_traitsIcESaIcEED1Ev(ptr noundef nonnull align 8 dereferenceable(32) %msg.i.i.i.i) #16
  call void @_ZdlPv(ptr noundef nonnull %3) #19
  br label %_ZN5arrow6ResultINS_7compute17KeyColumnMetadataEED2Ev.exit

_ZN5arrow6ResultINS_7compute17KeyColumnMetadataEED2Ev.exit: ; preds = %cleanup, %_ZN5arrow6Status11DeleteStateEv.exit.i.i
  ret void
}